; ModuleID = '56/369.c'
source_filename = "56/369.c"
target datalayout = "e-m:e-p270:32:32-p271:32:32-p272:64:64-i64:64-f80:128-n8:16:32:64-S128"
target triple = "x86_64-pc-linux-gnu"

@.str = private unnamed_addr constant [3 x i8] c"%d\00", align 1
@.str.1 = private unnamed_addr constant [5 x i8] c"%d%d\00", align 1
@.str.2 = private unnamed_addr constant [7 x i8] c"%d%d%d\00", align 1
@.str.3 = private unnamed_addr constant [9 x i8] c"%d%d%d%d\00", align 1
@.str.4 = private unnamed_addr constant [11 x i8] c"%d%d%d%d%d\00", align 1

; Function Attrs: noinline nounwind uwtable
define dso_local i32 @main() #0 {
  %1 = alloca i32, align 4
  %2 = alloca i32, align 4
  %3 = alloca i32, align 4
  %4 = alloca i32, align 4
  %5 = alloca i32, align 4
  %6 = alloca i32, align 4
  %7 = alloca i32, align 4
  %8 = alloca i32, align 4
  store i32 0, i32* %1, align 4
  %9 = call i32 (i8*, ...) @__isoc99_scanf(i8* getelementptr inbounds ([3 x i8], [3 x i8]* @.str, i64 0, i64 0), i32* %7)
  %10 = load i32, i32* %7, align 4
  %11 = sdiv i32 %10, 10000
  store i32 %11, i32* %2, align 4
  %12 = load i32, i32* %7, align 4
  %13 = load i32, i32* %2, align 4
  %14 = mul nsw i32 %13, 10000
  %15 = sub nsw i32 %12, %14
  %16 = sdiv i32 %15, 1000
  store i32 %16, i32* %3, align 4
  %17 = load i32, i32* %7, align 4
  %18 = load i32, i32* %2, align 4
  %19 = mul nsw i32 %18, 10000
  %20 = sub nsw i32 %17, %19
  %21 = load i32, i32* %3, align 4
  %22 = mul nsw i32 %21, 1000
  %23 = sub nsw i32 %20, %22
  %24 = sdiv i32 %23, 100
  store i32 %24, i32* %4, align 4
  %25 = load i32, i32* %7, align 4
  %26 = load i32, i32* %2, align 4
  %27 = mul nsw i32 %26, 10000
  %28 = sub nsw i32 %25, %27
  %29 = load i32, i32* %3, align 4
  %30 = mul nsw i32 %29, 1000
  %31 = sub nsw i32 %28, %30
  %32 = load i32, i32* %4, align 4
  %33 = mul nsw i32 %32, 100
  %34 = sub nsw i32 %31, %33
  %35 = sdiv i32 %34, 10
  store i32 %35, i32* %5, align 4
  %36 = load i32, i32* %7, align 4
  %37 = load i32, i32* %2, align 4
  %38 = mul nsw i32 %37, 10000
  %39 = sub nsw i32 %36, %38
  %40 = load i32, i32* %3, align 4
  %41 = mul nsw i32 %40, 1000
  %42 = sub nsw i32 %39, %41
  %43 = load i32, i32* %4, align 4
  %44 = mul nsw i32 %43, 100
  %45 = sub nsw i32 %42, %44
  %46 = load i32, i32* %5, align 4
  %47 = mul nsw i32 %46, 10
  %48 = sub nsw i32 %45, %47
  %49 = sdiv i32 %48, 1
  store i32 %49, i32* %6, align 4
  %50 = load i32, i32* %2, align 4
  %51 = icmp ne i32 %50, 0
  br i1 %51, label %52, label %53

52:                                               ; preds = %0
  store i32 5, i32* %8, align 4
  br label %87

53:                                               ; preds = %0
  %54 = load i32, i32* %2, align 4
  %55 = icmp eq i32 %54, 0
  br i1 %55, label %56, label %60

56:                                               ; preds = %53
  %57 = load i32, i32* %3, align 4
  %58 = icmp ne i32 %57, 0
  br i1 %58, label %59, label %60

59:                                               ; preds = %56
  store i32 4, i32* %8, align 4
  br label %86

60:                                               ; preds = %56, %53
  %61 = load i32, i32* %2, align 4
  %62 = icmp eq i32 %61, 0
  br i1 %62, label %63, label %70

63:                                               ; preds = %60
  %64 = load i32, i32* %3, align 4
  %65 = icmp eq i32 %64, 0
  br i1 %65, label %66, label %70

66:                                               ; preds = %63
  %67 = load i32, i32* %4, align 4
  %68 = icmp ne i32 %67, 0
  br i1 %68, label %69, label %70

69:                                               ; preds = %66
  store i32 3, i32* %8, align 4
  br label %85

70:                                               ; preds = %66, %63, %60
  %71 = load i32, i32* %2, align 4
  %72 = icmp eq i32 %71, 0
  br i1 %72, label %73, label %83

73:                                               ; preds = %70
  %74 = load i32, i32* %3, align 4
  %75 = icmp eq i32 %74, 0
  br i1 %75, label %76, label %83

76:                                               ; preds = %73
  %77 = load i32, i32* %4, align 4
  %78 = icmp eq i32 %77, 0
  br i1 %78, label %79, label %83

79:                                               ; preds = %76
  %80 = load i32, i32* %5, align 4
  %81 = icmp ne i32 %80, 0
  br i1 %81, label %82, label %83

82:                                               ; preds = %79
  store i32 2, i32* %8, align 4
  br label %84

83:                                               ; preds = %79, %76, %73, %70
  store i32 1, i32* %8, align 4
  br label %84

84:                                               ; preds = %83, %82
  br label %85

85:                                               ; preds = %84, %69
  br label %86

86:                                               ; preds = %85, %59
  br label %87

87:                                               ; preds = %86, %52
  %88 = load i32, i32* %8, align 4
  switch i32 %88, label %114 [
    i32 1, label %89
    i32 2, label %92
    i32 3, label %96
    i32 4, label %101
    i32 5, label %107
  ]

89:                                               ; preds = %87
  %90 = load i32, i32* %7, align 4
  %91 = call i32 (i8*, ...) @printf(i8* getelementptr inbounds ([3 x i8], [3 x i8]* @.str, i64 0, i64 0), i32 %90)
  br label %114

92:                                               ; preds = %87
  %93 = load i32, i32* %6, align 4
  %94 = load i32, i32* %5, align 4
  %95 = call i32 (i8*, ...) @printf(i8* getelementptr inbounds ([5 x i8], [5 x i8]* @.str.1, i64 0, i64 0), i32 %93, i32 %94)
  br label %114

96:                                               ; preds = %87
  %97 = load i32, i32* %6, align 4
  %98 = load i32, i32* %5, align 4
  %99 = load i32, i32* %4, align 4
  %100 = call i32 (i8*, ...) @printf(i8* getelementptr inbounds ([7 x i8], [7 x i8]* @.str.2, i64 0, i64 0), i32 %97, i32 %98, i32 %99)
  br label %114

101:                                              ; preds = %87
  %102 = load i32, i32* %6, align 4
  %103 = load i32, i32* %5, align 4
  %104 = load i32, i32* %4, align 4
  %105 = load i32, i32* %3, align 4
  %106 = call i32 (i8*, ...) @printf(i8* getelementptr inbounds ([9 x i8], [9 x i8]* @.str.3, i64 0, i64 0), i32 %102, i32 %103, i32 %104, i32 %105)
  br label %114

107:                                              ; preds = %87
  %108 = load i32, i32* %6, align 4
  %109 = load i32, i32* %5, align 4
  %110 = load i32, i32* %4, align 4
  %111 = load i32, i32* %3, align 4
  %112 = load i32, i32* %2, align 4
  %113 = call i32 (i8*, ...) @printf(i8* getelementptr inbounds ([11 x i8], [11 x i8]* @.str.4, i64 0, i64 0), i32 %108, i32 %109, i32 %110, i32 %111, i32 %112)
  br label %114

114:                                              ; preds = %87, %107, %101, %96, %92, %89
  ret i32 0
}

declare dso_local i32 @__isoc99_scanf(i8*, ...) #1

declare dso_local i32 @printf(i8*, ...) #1


!llvm.module.flags = !{!0}
!llvm.ident = !{!1}

!0 = !{i32 1, !"wchar_size", i32 4}
!1 = !{!"clang version 10.0.0-4ubuntu1 "}
